target datalayout = "e-m:e-p270:32:32-p271:32:32-p272:64:64-i64:64-i128:128-f80:128-n8:16:32:64-S128"
target triple = "x86_64-pc-linux-gnu"

%struct.H5T_t = type { %struct.H5O_shared_t, ptr, %struct.H5O_loc_t, %struct.H5G_name_t, ptr }
%struct.H5O_shared_t = type { i32, ptr, i32, %union.anon }
%union.anon = type { %struct.H5O_mesg_loc_t }
%struct.H5O_mesg_loc_t = type { i32, i64 }
%struct.H5O_loc_t = type { ptr, i64, i8 }
%struct.H5G_name_t = type { ptr, ptr, i32 }
%struct.H5T_shared_t = type { i64, i32, i32, i64, i32, i8, ptr, ptr, %union.anon.0 }
%union.anon.0 = type { %struct.H5T_array_t }
%struct.H5T_array_t = type { i64, i32, [32 x i64] }

@H5_libinit_g = external global i8, align 1
@H5_libterm_g = external global i8, align 1
@.str = private unnamed_addr constant [105 x i8] c"generated/home/dtcxzyw/WorkSpace/Projects/compilers/llvm-opt-benchmark/bench/hdf5/hdf5/src/H5Tcompound.c\00", align 1
@H5E_FUNC_g = external global i64, align 8
@H5E_CANTINIT_g = external global i64, align 8
@.str.1 = private unnamed_addr constant [30 x i8] c"library initialization failed\00", align 1
@H5E_CANTSET_g = external global i64, align 8
@.str.2 = private unnamed_addr constant [22 x i8] c"can't set API context\00", align 1
@H5E_ARGS_g = external global i64, align 8
@H5E_BADTYPE_g = external global i64, align 8
@.str.3 = private unnamed_addr constant [24 x i8] c"not a compound datatype\00", align 1
@H5E_BADVALUE_g = external global i64, align 8
@H5E_DATATYPE_g = external global i64, align 8
@__func__.H5Tinsert = private unnamed_addr constant [10 x i8] c"H5Tinsert\00", align 1
@.str.9 = private unnamed_addr constant [45 x i8] c"can't insert compound datatype within itself\00", align 1
@.str.10 = private unnamed_addr constant [22 x i8] c"parent type read-only\00", align 1
@.str.11 = private unnamed_addr constant [15 x i8] c"no member name\00", align 1
@.str.12 = private unnamed_addr constant [15 x i8] c"not a datatype\00", align 1
@H5E_CANTINSERT_g = external global i64, align 8
@.str.13 = private unnamed_addr constant [24 x i8] c"unable to insert member\00", align 1

; Function Attrs: nounwind uwtable
define i32 @H5Tinsert(i64 noundef %0, ptr noundef %1, i64 noundef %2, i64 noundef %3) #0 {
  %5 = alloca i64, align 8
  %6 = alloca ptr, align 8
  %7 = alloca i64, align 8
  %8 = alloca i64, align 8
  %9 = alloca ptr, align 8
  %10 = alloca ptr, align 8
  %11 = alloca i32, align 4
  %12 = alloca i8, align 1
  %13 = alloca i8, align 1
  store i64 %0, ptr %5, align 8
  store ptr %1, ptr %6, align 8
  store i64 %2, ptr %7, align 8
  store i64 %3, ptr %8, align 8
  store i32 0, ptr %11, align 4
  store i8 0, ptr %12, align 1
  store i8 0, ptr %13, align 1
  %14 = load i8, ptr @H5_libinit_g, align 1
  %15 = trunc i8 %14 to i1
  br i1 %15, label %20, label %16

16:                                               ; preds = %4
  %17 = load i8, ptr @H5_libterm_g, align 1
  %18 = trunc i8 %17 to i1
  %19 = xor i1 %18, true
  br label %20

20:                                               ; preds = %16, %4
  %21 = phi i1 [ false, %4 ], [ %19, %16 ]
  %22 = xor i1 %21, true
  %23 = xor i1 %22, true
  %24 = zext i1 %23 to i32
  %25 = sext i32 %24 to i64
  %26 = icmp ne i64 %25, 0
  br i1 %26, label %27, label %51

27:                                               ; preds = %20
  %28 = call i32 @H5_init_library()
  %29 = icmp slt i32 %28, 0
  %30 = xor i1 %29, true
  %31 = xor i1 %30, true
  %32 = zext i1 %31 to i32
  %33 = sext i32 %32 to i64
  %34 = icmp ne i64 %33, 0
  br i1 %34, label %35, label %50

35:                                               ; preds = %27
  br label %36

36:                                               ; preds = %35
  br label %37

37:                                               ; preds = %36
  br label %38

38:                                               ; preds = %37
  %39 = load i64, ptr @H5E_FUNC_g, align 8
  %40 = load i64, ptr @H5E_CANTINIT_g, align 8
  %41 = call i32 (ptr, ptr, i32, i64, i64, ptr, ...) @H5E_printf_stack(ptr noundef @.str, ptr noundef @__func__.H5Tinsert, i32 noundef 323, i64 noundef %39, i64 noundef %40, ptr noundef @.str.1)
  br label %42

42:                                               ; preds = %38
  store i8 1, ptr %13, align 1
  %43 = load i8, ptr %13, align 1
  %44 = trunc i8 %43 to i1
  %45 = zext i1 %44 to i8
  store i8 %45, ptr %13, align 1
  br label %46

46:                                               ; preds = %42
  br label %47

47:                                               ; preds = %46
  store i32 -1, ptr %11, align 4
  br label %207

48:                                               ; No predecessors!
  br label %49

49:                                               ; preds = %48
  br label %50

50:                                               ; preds = %49, %27
  br label %51

51:                                               ; preds = %50, %20
  %52 = call i32 @H5CX_push()
  %53 = icmp slt i32 %52, 0
  %54 = xor i1 %53, true
  %55 = xor i1 %54, true
  %56 = zext i1 %55 to i32
  %57 = sext i32 %56 to i64
  %58 = icmp ne i64 %57, 0
  br i1 %58, label %59, label %74

59:                                               ; preds = %51
  br label %60

60:                                               ; preds = %59
  br label %61

61:                                               ; preds = %60
  br label %62

62:                                               ; preds = %61
  %63 = load i64, ptr @H5E_FUNC_g, align 8
  %64 = load i64, ptr @H5E_CANTSET_g, align 8
  %65 = call i32 (ptr, ptr, i32, i64, i64, ptr, ...) @H5E_printf_stack(ptr noundef @.str, ptr noundef @__func__.H5Tinsert, i32 noundef 323, i64 noundef %63, i64 noundef %64, ptr noundef @.str.2)
  br label %66

66:                                               ; preds = %62
  store i8 1, ptr %13, align 1
  %67 = load i8, ptr %13, align 1
  %68 = trunc i8 %67 to i1
  %69 = zext i1 %68 to i8
  store i8 %69, ptr %13, align 1
  br label %70

70:                                               ; preds = %66
  br label %71

71:                                               ; preds = %70
  store i32 -1, ptr %11, align 4
  br label %207

72:                                               ; No predecessors!
  br label %73

73:                                               ; preds = %72
  br label %75

74:                                               ; preds = %51
  store i8 1, ptr %12, align 1
  br label %75

75:                                               ; preds = %74, %73
  %76 = call i32 @H5E_clear_stack()
  %77 = load i64, ptr %5, align 8
  %78 = load i64, ptr %8, align 8
  %79 = icmp eq i64 %77, %78
  br i1 %79, label %80, label %95

80:                                               ; preds = %75
  br label %81

81:                                               ; preds = %80
  br label %82

82:                                               ; preds = %81
  br label %83

83:                                               ; preds = %82
  %84 = load i64, ptr @H5E_ARGS_g, align 8
  %85 = load i64, ptr @H5E_BADVALUE_g, align 8
  %86 = call i32 (ptr, ptr, i32, i64, i64, ptr, ...) @H5E_printf_stack(ptr noundef @.str, ptr noundef @__func__.H5Tinsert, i32 noundef 327, i64 noundef %84, i64 noundef %85, ptr noundef @.str.9)
  br label %87

87:                                               ; preds = %83
  store i8 1, ptr %13, align 1
  %88 = load i8, ptr %13, align 1
  %89 = trunc i8 %88 to i1
  %90 = zext i1 %89 to i8
  store i8 %90, ptr %13, align 1
  br label %91

91:                                               ; preds = %87
  br label %92

92:                                               ; preds = %91
  store i32 -1, ptr %11, align 4
  br label %207

93:                                               ; No predecessors!
  br label %94

94:                                               ; preds = %93
  br label %95

95:                                               ; preds = %94, %75
  %96 = load i64, ptr %5, align 8
  %97 = call ptr @H5I_object_verify(i64 noundef %96, i32 noundef 3)
  store ptr %97, ptr %9, align 8
  %98 = icmp eq ptr null, %97
  br i1 %98, label %106, label %99

99:                                               ; preds = %95
  %100 = load ptr, ptr %9, align 8
  %101 = getelementptr inbounds %struct.H5T_t, ptr %100, i32 0, i32 1
  %102 = load ptr, ptr %101, align 8
  %103 = getelementptr inbounds %struct.H5T_shared_t, ptr %102, i32 0, i32 2
  %104 = load i32, ptr %103, align 4
  %105 = icmp ne i32 6, %104
  br i1 %105, label %106, label %121

106:                                              ; preds = %99, %95
  br label %107

107:                                              ; preds = %106
  br label %108

108:                                              ; preds = %107
  br label %109

109:                                              ; preds = %108
  %110 = load i64, ptr @H5E_ARGS_g, align 8
  %111 = load i64, ptr @H5E_BADTYPE_g, align 8
  %112 = call i32 (ptr, ptr, i32, i64, i64, ptr, ...) @H5E_printf_stack(ptr noundef @.str, ptr noundef @__func__.H5Tinsert, i32 noundef 330, i64 noundef %110, i64 noundef %111, ptr noundef @.str.3)
  br label %113

113:                                              ; preds = %109
  store i8 1, ptr %13, align 1
  %114 = load i8, ptr %13, align 1
  %115 = trunc i8 %114 to i1
  %116 = zext i1 %115 to i8
  store i8 %116, ptr %13, align 1
  br label %117

117:                                              ; preds = %113
  br label %118

118:                                              ; preds = %117
  store i32 -1, ptr %11, align 4
  br label %207

119:                                              ; No predecessors!
  br label %120

120:                                              ; preds = %119
  br label %121

121:                                              ; preds = %120, %99
  %122 = load ptr, ptr %9, align 8
  %123 = getelementptr inbounds %struct.H5T_t, ptr %122, i32 0, i32 1
  %124 = load ptr, ptr %123, align 8
  %125 = getelementptr inbounds %struct.H5T_shared_t, ptr %124, i32 0, i32 1
  %126 = load i32, ptr %125, align 8
  %127 = icmp ne i32 0, %126
  br i1 %127, label %128, label %143

128:                                              ; preds = %121
  br label %129

129:                                              ; preds = %128
  br label %130

130:                                              ; preds = %129
  br label %131

131:                                              ; preds = %130
  %132 = load i64, ptr @H5E_ARGS_g, align 8
  %133 = load i64, ptr @H5E_BADVALUE_g, align 8
  %134 = call i32 (ptr, ptr, i32, i64, i64, ptr, ...) @H5E_printf_stack(ptr noundef @.str, ptr noundef @__func__.H5Tinsert, i32 noundef 332, i64 noundef %132, i64 noundef %133, ptr noundef @.str.10)
  br label %135

135:                                              ; preds = %131
  store i8 1, ptr %13, align 1
  %136 = load i8, ptr %13, align 1
  %137 = trunc i8 %136 to i1
  %138 = zext i1 %137 to i8
  store i8 %138, ptr %13, align 1
  br label %139

139:                                              ; preds = %135
  br label %140

140:                                              ; preds = %139
  store i32 -1, ptr %11, align 4
  br label %207

141:                                              ; No predecessors!
  br label %142

142:                                              ; preds = %141
  br label %143

143:                                              ; preds = %142, %121
  %144 = load ptr, ptr %6, align 8
  %145 = icmp ne ptr %144, null
  br i1 %145, label %146, label %150

146:                                              ; preds = %143
  %147 = load ptr, ptr %6, align 8
  %148 = load i8, ptr %147, align 1
  %149 = icmp ne i8 %148, 0
  br i1 %149, label %165, label %150

150:                                              ; preds = %146, %143
  br label %151

151:                                              ; preds = %150
  br label %152

152:                                              ; preds = %151
  br label %153

153:                                              ; preds = %152
  %154 = load i64, ptr @H5E_ARGS_g, align 8
  %155 = load i64, ptr @H5E_BADVALUE_g, align 8
  %156 = call i32 (ptr, ptr, i32, i64, i64, ptr, ...) @H5E_printf_stack(ptr noundef @.str, ptr noundef @__func__.H5Tinsert, i32 noundef 334, i64 noundef %154, i64 noundef %155, ptr noundef @.str.11)
  br label %157

157:                                              ; preds = %153
  store i8 1, ptr %13, align 1
  %158 = load i8, ptr %13, align 1
  %159 = trunc i8 %158 to i1
  %160 = zext i1 %159 to i8
  store i8 %160, ptr %13, align 1
  br label %161

161:                                              ; preds = %157
  br label %162

162:                                              ; preds = %161
  store i32 -1, ptr %11, align 4
  br label %207

163:                                              ; No predecessors!
  br label %164

164:                                              ; preds = %163
  br label %165

165:                                              ; preds = %164, %146
  %166 = load i64, ptr %8, align 8
  %167 = call ptr @H5I_object_verify(i64 noundef %166, i32 noundef 3)
  store ptr %167, ptr %10, align 8
  %168 = icmp eq ptr null, %167
  br i1 %168, label %169, label %184

169:                                              ; preds = %165
  br label %170

170:                                              ; preds = %169
  br label %171

171:                                              ; preds = %170
  br label %172

172:                                              ; preds = %171
  %173 = load i64, ptr @H5E_ARGS_g, align 8
  %174 = load i64, ptr @H5E_BADTYPE_g, align 8
  %175 = call i32 (ptr, ptr, i32, i64, i64, ptr, ...) @H5E_printf_stack(ptr noundef @.str, ptr noundef @__func__.H5Tinsert, i32 noundef 336, i64 noundef %173, i64 noundef %174, ptr noundef @.str.12)
  br label %176

176:                                              ; preds = %172
  store i8 1, ptr %13, align 1
  %177 = load i8, ptr %13, align 1
  %178 = trunc i8 %177 to i1
  %179 = zext i1 %178 to i8
  store i8 %179, ptr %13, align 1
  br label %180

180:                                              ; preds = %176
  br label %181

181:                                              ; preds = %180
  store i32 -1, ptr %11, align 4
  br label %207

182:                                              ; No predecessors!
  br label %183

183:                                              ; preds = %182
  br label %184

184:                                              ; preds = %183, %165
  %185 = load ptr, ptr %9, align 8
  %186 = load ptr, ptr %6, align 8
  %187 = load i64, ptr %7, align 8
  %188 = load ptr, ptr %10, align 8
  %189 = call i32 @H5T__insert(ptr noundef %185, ptr noundef %186, i64 noundef %187, ptr noundef %188)
  %190 = icmp slt i32 %189, 0
  br i1 %190, label %191, label %206

191:                                              ; preds = %184
  br label %192

192:                                              ; preds = %191
  br label %193

193:                                              ; preds = %192
  br label %194

194:                                              ; preds = %193
  %195 = load i64, ptr @H5E_DATATYPE_g, align 8
  %196 = load i64, ptr @H5E_CANTINSERT_g, align 8
  %197 = call i32 (ptr, ptr, i32, i64, i64, ptr, ...) @H5E_printf_stack(ptr noundef @.str, ptr noundef @__func__.H5Tinsert, i32 noundef 340, i64 noundef %195, i64 noundef %196, ptr noundef @.str.13)
  br label %198

198:                                              ; preds = %194
  store i8 1, ptr %13, align 1
  %199 = load i8, ptr %13, align 1
  %200 = trunc i8 %199 to i1
  %201 = zext i1 %200 to i8
  store i8 %201, ptr %13, align 1
  br label %202

202:                                              ; preds = %198
  br label %203

203:                                              ; preds = %202
  store i32 -1, ptr %11, align 4
  br label %207

204:                                              ; No predecessors!
  br label %205

205:                                              ; preds = %204
  br label %206

206:                                              ; preds = %205, %184
  br label %207

207:                                              ; preds = %206, %203, %181, %162, %140, %118, %92, %71, %47
  %208 = load i8, ptr %12, align 1
  %209 = trunc i8 %208 to i1
  %210 = xor i1 %209, true
  %211 = xor i1 %210, true
  %212 = zext i1 %211 to i32
  %213 = sext i32 %212 to i64
  %214 = icmp ne i64 %213, 0
  br i1 %214, label %215, label %217

215:                                              ; preds = %207
  %216 = call i32 @H5CX_pop(i1 noundef zeroext true)
  store i8 0, ptr %12, align 1
  br label %217

217:                                              ; preds = %215, %207
  %218 = load i8, ptr %13, align 1
  %219 = trunc i8 %218 to i1
  %220 = xor i1 %219, true
  %221 = xor i1 %220, true
  %222 = zext i1 %221 to i32
  %223 = sext i32 %222 to i64
  %224 = icmp ne i64 %223, 0
  br i1 %224, label %225, label %227

225:                                              ; preds = %217
  %226 = call i32 @H5E_dump_api_stack()
  br label %227

227:                                              ; preds = %225, %217
  %228 = load i32, ptr %11, align 4
  ret i32 %228
}