; Function Attrs: nounwind uwtable
define range(i32 -1, 1) i32 @H5Tinsert(i64 noundef %0, ptr noundef %1, i64 noundef %2, i64 noundef %3) local_unnamed_addr #0 {
  %5 = load i8, ptr @H5_libinit_g, align 1
  %6 = trunc i8 %5 to i1
  %7 = load i8, ptr @H5_libterm_g, align 1
  %8 = trunc i8 %7 to i1
  %9 = select i1 %6, i1 true, i1 %8
  br i1 %9, label %17, label %10

10:                                               ; preds = %4
  %11 = tail call i32 @H5_init_library() #6
  %12 = icmp slt i32 %11, 0
  br i1 %12, label %13, label %17

13:                                               ; preds = %10
  %14 = load i64, ptr @H5E_FUNC_g, align 8
  %15 = load i64, ptr @H5E_CANTINIT_g, align 8
  %16 = tail call i32 (ptr, ptr, i32, i64, i64, ptr, ...) @H5E_printf_stack(ptr noundef nonnull @.str, ptr noundef nonnull @__func__.H5Tinsert, i32 noundef 323, i64 noundef %14, i64 noundef %15, ptr noundef nonnull @.str.1) #6
  br label %.thread40

17:                                               ; preds = %10, %4
  %18 = tail call i32 @H5CX_push() #6
  %19 = icmp slt i32 %18, 0
  br i1 %19, label %20, label %24

20:                                               ; preds = %17
  %21 = load i64, ptr @H5E_FUNC_g, align 8
  %22 = load i64, ptr @H5E_CANTSET_g, align 8
  %23 = tail call i32 (ptr, ptr, i32, i64, i64, ptr, ...) @H5E_printf_stack(ptr noundef nonnull @.str, ptr noundef nonnull @__func__.H5Tinsert, i32 noundef 323, i64 noundef %21, i64 noundef %22, ptr noundef nonnull @.str.2) #6
  br label %.thread40

24:                                               ; preds = %17
  %25 = tail call i32 @H5E_clear_stack() #6
  %26 = icmp eq i64 %0, %3
  br i1 %26, label %27, label %31

27:                                               ; preds = %24
  %28 = load i64, ptr @H5E_ARGS_g, align 8
  %29 = load i64, ptr @H5E_BADVALUE_g, align 8
  %30 = tail call i32 (ptr, ptr, i32, i64, i64, ptr, ...) @H5E_printf_stack(ptr noundef nonnull @.str, ptr noundef nonnull @__func__.H5Tinsert, i32 noundef 327, i64 noundef %28, i64 noundef %29, ptr noundef nonnull @.str.9) #6
  br label %.thread46

31:                                               ; preds = %24
  %32 = tail call ptr @H5I_object_verify(i64 noundef %0, i32 noundef 3) #6
  %33 = icmp eq ptr %32, null
  br i1 %33, label %39, label %34

34:                                               ; preds = %31
  %35 = getelementptr inbounds i8, ptr %32, i64 40
  %36 = load ptr, ptr %35, align 8
  %37 = getelementptr inbounds i8, ptr %36, i64 12
  %38 = load i32, ptr %37, align 4
  %.not = icmp eq i32 %38, 6
  br i1 %.not, label %43, label %39

39:                                               ; preds = %31, %34
  %40 = load i64, ptr @H5E_ARGS_g, align 8
  %41 = load i64, ptr @H5E_BADTYPE_g, align 8
  %42 = tail call i32 (ptr, ptr, i32, i64, i64, ptr, ...) @H5E_printf_stack(ptr noundef nonnull @.str, ptr noundef nonnull @__func__.H5Tinsert, i32 noundef 330, i64 noundef %40, i64 noundef %41, ptr noundef nonnull @.str.3) #6
  br label %.thread46

43:                                               ; preds = %34
  %44 = getelementptr inbounds i8, ptr %36, i64 8
  %45 = load i32, ptr %44, align 8
  %.not29 = icmp eq i32 %45, 0
  br i1 %.not29, label %50, label %46

46:                                               ; preds = %43
  %47 = load i64, ptr @H5E_ARGS_g, align 8
  %48 = load i64, ptr @H5E_BADVALUE_g, align 8
  %49 = tail call i32 (ptr, ptr, i32, i64, i64, ptr, ...) @H5E_printf_stack(ptr noundef nonnull @.str, ptr noundef nonnull @__func__.H5Tinsert, i32 noundef 332, i64 noundef %47, i64 noundef %48, ptr noundef nonnull @.str.10) #6
  br label %.thread46

50:                                               ; preds = %43
  %.not30 = icmp eq ptr %1, null
  br i1 %.not30, label %53, label %51

51:                                               ; preds = %50
  %52 = load i8, ptr %1, align 1
  %.not31 = icmp eq i8 %52, 0
  br i1 %.not31, label %53, label %57

53:                                               ; preds = %50, %51
  %54 = load i64, ptr @H5E_ARGS_g, align 8
  %55 = load i64, ptr @H5E_BADVALUE_g, align 8
  %56 = tail call i32 (ptr, ptr, i32, i64, i64, ptr, ...) @H5E_printf_stack(ptr noundef nonnull @.str, ptr noundef nonnull @__func__.H5Tinsert, i32 noundef 334, i64 noundef %54, i64 noundef %55, ptr noundef nonnull @.str.11) #6
  br label %.thread46

57:                                               ; preds = %51
  %58 = tail call ptr @H5I_object_verify(i64 noundef %3, i32 noundef 3) #6
  %59 = icmp eq ptr %58, null
  br i1 %59, label %60, label %64

60:                                               ; preds = %57
  %61 = load i64, ptr @H5E_ARGS_g, align 8
  %62 = load i64, ptr @H5E_BADTYPE_g, align 8
  %63 = tail call i32 (ptr, ptr, i32, i64, i64, ptr, ...) @H5E_printf_stack(ptr noundef nonnull @.str, ptr noundef nonnull @__func__.H5Tinsert, i32 noundef 336, i64 noundef %61, i64 noundef %62, ptr noundef nonnull @.str.12) #6
  br label %.thread46

64:                                               ; preds = %57
  %65 = tail call i32 @H5T__insert(ptr noundef nonnull %32, ptr noundef nonnull %1, i64 noundef %2, ptr noundef nonnull %58)
  %66 = icmp slt i32 %65, 0
  br i1 %66, label %67, label %72

67:                                               ; preds = %64
  %68 = load i64, ptr @H5E_DATATYPE_g, align 8
  %69 = load i64, ptr @H5E_CANTINSERT_g, align 8
  %70 = tail call i32 (ptr, ptr, i32, i64, i64, ptr, ...) @H5E_printf_stack(ptr noundef nonnull @.str, ptr noundef nonnull @__func__.H5Tinsert, i32 noundef 340, i64 noundef %68, i64 noundef %69, ptr noundef nonnull @.str.13) #6
  br label %.thread46

.thread46:                                        ; preds = %53, %67, %60, %46, %39, %27
  %71 = tail call i32 @H5CX_pop(i1 noundef zeroext true) #6
  br label %.thread40

72:                                               ; preds = %64
  %73 = tail call i32 @H5CX_pop(i1 noundef zeroext true) #6
  br label %75

.thread40:                                        ; preds = %20, %13, %.thread46
  %74 = tail call i32 @H5E_dump_api_stack() #6
  br label %75

75:                                               ; preds = %72, %.thread40
  %.0233543 = phi i32 [ -1, %.thread40 ], [ 0, %72 ]
  ret i32 %.0233543
}